target datalayout = "e-m:e-p270:32:32-p271:32:32-p272:64:64-i64:64-i128:128-f80:128-n8:16:32:64-S128"
target triple = "x86_64-pc-linux-gnu"

%struct.VuDev = type { i32, i32, ptr, ptr, %struct.VuDevInflightInfo, i32, %union.pthread_mutex_t, i32, i64, ptr, i64, i64, i8, i16, ptr, ptr, ptr, ptr, ptr, i32, i8 }
%struct.VuDevInflightInfo = type { i32, ptr, i64 }
%union.pthread_mutex_t = type { %struct.__pthread_mutex_s }
%struct.__pthread_mutex_s = type { i32, i32, i32, i32, i32, i16, i16, %struct.__pthread_internal_list }
%struct.__pthread_internal_list = type { ptr, ptr }
%struct.VuVirtq = type { %struct.VuRing, ptr, ptr, i16, i64, i16, i16, i16, i16, i8, i8, i32, ptr, i32, i32, i32, i32, i8, %struct.vhost_vring_addr }
%struct.VuRing = type { i32, ptr, ptr, ptr, i64, i32 }
%struct.vhost_vring_addr = type { i32, i32, i64, i64, i64, i64 }

@.str.40 = private unnamed_addr constant [50 x i8] c"../qemu/subprojects/libvhost-user/libvhost-user.c\00", align 1
@.str.46 = private unnamed_addr constant [23 x i8] c"qidx < dev->max_queues\00", align 1
@__PRETTY_FUNCTION__.vu_get_queue = private unnamed_addr constant [36 x i8] c"VuVirtq *vu_get_queue(VuDev *, int)\00", align 1

; Function Attrs: nounwind uwtable
define dso_local ptr @vu_get_queue(ptr noundef %0, i32 noundef %1) #0 {
  %3 = alloca ptr, align 8
  %4 = alloca i32, align 4
  store ptr %0, ptr %3, align 8
  store i32 %1, ptr %4, align 4
  %5 = load i32, ptr %4, align 4
  %6 = load ptr, ptr %3, align 8
  %7 = getelementptr inbounds nuw %struct.VuDev, ptr %6, i32 0, i32 13
  %8 = load i16, ptr %7, align 2
  %9 = zext i16 %8 to i32
  %10 = icmp slt i32 %5, %9
  br i1 %10, label %11, label %12

11:                                               ; preds = %2
  br label %13

12:                                               ; preds = %2
  call void @__assert_fail(ptr noundef @.str.46, ptr noundef @.str.40, i32 noundef 2311, ptr noundef @__PRETTY_FUNCTION__.vu_get_queue) #15
  unreachable

13:                                               ; preds = %11
  %14 = load ptr, ptr %3, align 8
  %15 = getelementptr inbounds nuw %struct.VuDev, ptr %14, i32 0, i32 3
  %16 = load ptr, ptr %15, align 8
  %17 = load i32, ptr %4, align 4
  %18 = sext i32 %17 to i64
  %19 = getelementptr inbounds %struct.VuVirtq, ptr %16, i64 %18
  ret ptr %19
}