; Function Attrs: nounwind uwtable
define dso_local ptr @vu_get_queue(ptr noundef readonly captures(none) %0, i32 noundef %1) local_unnamed_addr #3 {
  %3 = getelementptr inbounds nuw i8, ptr %0, i64 138
  %4 = load i16, ptr %3, align 2
  %5 = zext i16 %4 to i32
  %6 = icmp slt i32 %1, %5
  br i1 %6, label %8, label %7

7:                                                ; preds = %2
  tail call void @__assert_fail(ptr noundef nonnull @.str.46, ptr noundef nonnull @.str.40, i32 noundef 2311, ptr noundef nonnull @__PRETTY_FUNCTION__.vu_get_queue) #23
  unreachable

8:                                                ; preds = %2
  %9 = getelementptr inbounds nuw i8, ptr %0, i64 16
  %10 = load ptr, ptr %9, align 8
  %11 = sext i32 %1 to i64
  %12 = getelementptr inbounds %struct.VuVirtq, ptr %10, i64 %11
  ret ptr %12
}